; Function Attrs: nounwind uwtable
define internal ptr @SHA1Type_copy(ptr noundef %0, ptr noundef readonly captures(none) %1, ptr readnone captures(none) %2, i64 noundef %3, ptr noundef readonly %4) #0 {
  %.not = icmp eq i64 %3, 0
  br i1 %.not, label %6, label %9

6:                                                ; preds = %5
  %.not6 = icmp eq ptr %4, null
  br i1 %.not6, label %11, label %7

7:                                                ; preds = %6
  %8 = getelementptr i8, ptr %4, i64 16
  %.val = load i64, ptr %8, align 8, !tbaa !11
  %.not7 = icmp eq i64 %.val, 0
  br i1 %.not7, label %11, label %9

9:                                                ; preds = %7, %5
  %10 = load ptr, ptr @PyExc_TypeError, align 8, !tbaa !15
  tail call void @PyErr_SetString(ptr noundef %10, ptr noundef nonnull @.str.18) #3
  br label %SHA1Type_copy_impl.exit

11:                                               ; preds = %7, %6
  %12 = getelementptr i8, ptr %1, i64 888
  %.val8 = load ptr, ptr %12, align 8, !tbaa !39
  %13 = getelementptr i8, ptr %.val8, i64 32
  %.val8.val = load ptr, ptr %13, align 8, !tbaa !48
  %.val8.val.val = load ptr, ptr %.val8.val, align 8, !tbaa !3
  %14 = tail call ptr @_PyObject_GC_New(ptr noundef %.val8.val.val) #3
  %15 = icmp eq ptr %14, null
  br i1 %15, label %SHA1Type_copy_impl.exit, label %16

16:                                               ; preds = %11
  %17 = getelementptr inbounds nuw i8, ptr %14, i64 17
  store i8 0, ptr %17, align 1, !tbaa !10
  %18 = getelementptr inbounds nuw i8, ptr %14, i64 16
  store i8 0, ptr %18, align 8, !tbaa !29
  tail call void @PyObject_GC_Track(ptr noundef nonnull %14) #3
  %19 = getelementptr inbounds nuw i8, ptr %0, i64 16
  %20 = load i8, ptr %19, align 8, !tbaa !29, !range !51, !noundef !52
  %21 = trunc nuw i8 %20 to i1
  br i1 %21, label %22, label %_PyMutex_Lock.exit.i

22:                                               ; preds = %16
  %23 = getelementptr inbounds nuw i8, ptr %0, i64 17
  %24 = cmpxchg ptr %23, i8 0, i8 1 seq_cst seq_cst, align 1
  %25 = extractvalue { i8, i1 } %24, 1
  br i1 %25, label %_PyMutex_Lock.exit.i, label %26

26:                                               ; preds = %22
  tail call void @PyMutex_Lock(ptr noundef nonnull %23) #3
  br label %_PyMutex_Lock.exit.i

_PyMutex_Lock.exit.i:                             ; preds = %26, %22, %16
  %27 = getelementptr inbounds nuw i8, ptr %0, i64 32
  %28 = load ptr, ptr %27, align 8, !tbaa !34
  %29 = tail call ptr @python_hashlib_Hacl_Hash_SHA1_copy(ptr noundef %28) #3
  %30 = getelementptr inbounds nuw i8, ptr %14, i64 32
  store ptr %29, ptr %30, align 8, !tbaa !34
  %31 = load i8, ptr %19, align 8, !tbaa !29, !range !51, !noundef !52
  %32 = trunc nuw i8 %31 to i1
  br i1 %32, label %33, label %SHA1Type_copy_impl.exit

33:                                               ; preds = %_PyMutex_Lock.exit.i
  %34 = getelementptr inbounds nuw i8, ptr %0, i64 17
  %35 = cmpxchg ptr %34, i8 1, i8 0 seq_cst seq_cst, align 1
  %36 = extractvalue { i8, i1 } %35, 1
  br i1 %36, label %SHA1Type_copy_impl.exit, label %37

37:                                               ; preds = %33
  tail call void @PyMutex_Unlock(ptr noundef nonnull %34) #3
  br label %SHA1Type_copy_impl.exit

SHA1Type_copy_impl.exit:                          ; preds = %37, %33, %_PyMutex_Lock.exit.i, %11, %9
  %.0 = phi ptr [ null, %9 ], [ null, %11 ], [ %14, %_PyMutex_Lock.exit.i ], [ %14, %33 ], [ %14, %37 ]
  ret ptr %.0
}